ccopy_reg
_reconstructor
p0
(csklearn.pipeline
Pipeline
p1
c__builtin__
object
p2
Ntp3
Rp4
(dp5
S'steps'
p6
(lp7
(S'SKB'
p8
g0
(csklearn.feature_selection.univariate_selection
SelectKBest
p9
g2
Ntp10
Rp11
(dp12
S'k'
p13
I5
sS'score_func'
p14
csklearn.feature_selection.univariate_selection
f_classif
p15
sbtp16
a(S'PCA'
p17
g0
(csklearn.decomposition.pca
PCA
p18
g2
Ntp19
Rp20
(dp21
S'copy'
p22
I01
sS'n_components'
p23
I2
sS'whiten'
p24
I00
sbtp25
a(S'Random'
p26
g0
(csklearn.ensemble.forest
RandomForestClassifier
p27
g2
Ntp28
Rp29
(dp30
S'warm_start'
p31
I00
sS'base_estimator'
p32
g0
(csklearn.tree.tree
DecisionTreeClassifier
p33
g2
Ntp34
Rp35
(dp36
S'presort'
p37
I00
sS'splitter'
p38
S'best'
p39
sS'tree_'
p40
NsS'n_features_'
p41
NsS'n_outputs_'
p42
NsS'n_classes_'
p43
NsS'random_state'
p44
NsS'classes_'
p45
NsS'max_features_'
p46
NsS'min_samples_leaf'
p47
I1
sS'max_features'
p48
NsS'min_weight_fraction_leaf'
p49
F0.0
sS'criterion'
p50
S'gini'
p51
sS'max_leaf_nodes'
p52
NsS'min_samples_split'
p53
I2
sS'max_depth'
p54
NsS'class_weight'
p55
NsbsS'estimators_'
p56
(lp57
sS'n_jobs'
p58
I1
sS'verbose'
p59
I0
sg44
I42
sS'bootstrap'
p60
I00
sS'oob_score'
p61
I00
sg47
I1
sS'n_estimators'
p62
I30
sg48
S'auto'
p63
sS'estimator_params'
p64
(S'criterion'
p65
S'max_depth'
p66
S'min_samples_split'
p67
S'min_samples_leaf'
p68
S'min_weight_fraction_leaf'
p69
S'max_features'
p70
S'max_leaf_nodes'
p71
S'random_state'
p72
tp73
sg50
g51
sg49
F0.0
sg52
Nsg53
I2
sg54
Nsg55
Nsbtp74
asb.