(lp0
S'poi'
p1
aS'to_messages'
p2
aS'deferral_payments'
p3
aS'expenses'
p4
aS'deferred_income'
p5
aS'long_term_incentive'
p6
aS'fraction_from_poi'
p7
aS'shared_receipt_with_poi'
p8
aS'from_messages'
p9
aS'director_fees'
p10
aS'bonus'
p11
aS'total_stock_value'
p12
aS'from_poi_to_this_person'
p13
aS'from_this_person_to_poi'
p14
aS'restricted_stock'
p15
aS'salary'
p16
aS'total_payments'
p17
aS'fraction_to_poi'
p18
aS'exercised_stock_options'
p19
a.